target datalayout = "e-m:e-p270:32:32-p271:32:32-p272:64:64-i64:64-i128:128-f80:128-n8:16:32:64-S128"
target triple = "x86_64-pc-linux-gnu"

%struct.expert_field = type { i32, i32 }

@hf_pcep_lspa_flags_l = internal global i32 0, align 4
@hf_pcep_lspa_obj_exclude_any = internal global i32 0, align 4
@hf_pcep_lspa_obj_include_any = internal global i32 0, align 4
@hf_pcep_lspa_obj_include_all = internal global i32 0, align 4
@hf_pcep_lspa_obj_setup_priority = internal global i32 0, align 4
@hf_pcep_lspa_obj_holding_priority = internal global i32 0, align 4
@hf_pcep_lspa_obj_flags = internal global i32 0, align 4
@hf_pcep_lspa_obj_reserved = internal global i32 0, align 4
@ett_pcep_obj_metric = internal global i32 0, align 4
@ett_pcep_obj_lspa = internal global i32 0, align 4
@ei_pcep_subobject_bad_length = internal global %struct.expert_field zeroinitializer, align 4
@.str.1173 = private unnamed_addr constant [43 x i8] c"Bad LSPA object length %u, should be >= %u\00", align 1

; Function Attrs: null_pointer_is_valid sspstrong uwtable
define internal void @dissect_pcep_tlvs(ptr noundef %0, ptr noundef %1, i32 noundef %2, i32 noundef %3, i32 noundef %4) #0 {
  %6 = alloca ptr, align 8
  %7 = alloca ptr, align 8
  %8 = alloca i32, align 4
  %9 = alloca i32, align 4
  %10 = alloca i32, align 4
  store ptr %0, ptr %6, align 8
  store ptr %1, ptr %7, align 8
  store i32 %2, ptr %8, align 4
  store i32 %3, ptr %9, align 4
  store i32 %4, ptr %10, align 4
  %11 = load ptr, ptr %6, align 8
  %12 = load ptr, ptr %7, align 8
  %13 = load i32, ptr %8, align 4
  %14 = load i32, ptr %9, align 4
  %15 = load i32, ptr %10, align 4
  call void @dissect_pcep_tlvs_with_scope(ptr noundef %11, ptr noundef %12, i32 noundef %13, i32 noundef %14, i32 noundef %15, i16 noundef zeroext 0)
  ret void
}

; Function Attrs: null_pointer_is_valid sspstrong uwtable
define internal void @dissect_pcep_lspa_obj(ptr noundef %0, ptr noundef %1, ptr noundef %2, i32 noundef %3, i32 noundef %4, i32 noundef %5, i32 noundef %6) #0 {
  %8 = alloca ptr, align 8
  %9 = alloca ptr, align 8
  %10 = alloca ptr, align 8
  %11 = alloca i32, align 4
  %12 = alloca i32, align 4
  %13 = alloca i32, align 4
  %14 = alloca i32, align 4
  %15 = alloca ptr, align 8
  %16 = alloca ptr, align 8
  %17 = alloca i32, align 4
  store ptr %0, ptr %8, align 8
  store ptr %1, ptr %9, align 8
  store ptr %2, ptr %10, align 8
  store i32 %3, ptr %11, align 4
  store i32 %4, ptr %12, align 4
  store i32 %5, ptr %13, align 4
  store i32 %6, ptr %14, align 4
  call void @llvm.lifetime.start.p0(i64 8, ptr %15) #4
  call void @llvm.lifetime.start.p0(i64 8, ptr %16) #4
  %18 = load i32, ptr %12, align 4
  %19 = icmp slt i32 %18, 20
  br i1 %19, label %20, label %28

20:                                               ; preds = %7
  %21 = load ptr, ptr %8, align 8
  %22 = load ptr, ptr %9, align 8
  %23 = load ptr, ptr %10, align 8
  %24 = load i32, ptr %11, align 4
  %25 = load i32, ptr %12, align 4
  %26 = load i32, ptr %12, align 4
  %27 = call ptr (ptr, ptr, ptr, ptr, i32, i32, ptr, ...) @proto_tree_add_expert_format(ptr noundef %21, ptr noundef %22, ptr noundef @ei_pcep_subobject_bad_length, ptr noundef %23, i32 noundef %24, i32 noundef %25, ptr noundef @.str.1173, i32 noundef %26, i32 noundef 20)
  store i32 1, ptr %17, align 4
  br label %88

28:                                               ; preds = %7
  %29 = load ptr, ptr %8, align 8
  %30 = load i32, ptr @hf_pcep_lspa_obj_exclude_any, align 4
  %31 = load ptr, ptr %10, align 8
  %32 = load i32, ptr %11, align 4
  %33 = call ptr @proto_tree_add_item(ptr noundef %29, i32 noundef %30, ptr noundef %31, i32 noundef %32, i32 noundef 4, i32 noundef 0)
  %34 = load ptr, ptr %8, align 8
  %35 = load i32, ptr @hf_pcep_lspa_obj_include_any, align 4
  %36 = load ptr, ptr %10, align 8
  %37 = load i32, ptr %11, align 4
  %38 = add i32 %37, 4
  %39 = call ptr @proto_tree_add_item(ptr noundef %34, i32 noundef %35, ptr noundef %36, i32 noundef %38, i32 noundef 4, i32 noundef 0)
  %40 = load ptr, ptr %8, align 8
  %41 = load i32, ptr @hf_pcep_lspa_obj_include_all, align 4
  %42 = load ptr, ptr %10, align 8
  %43 = load i32, ptr %11, align 4
  %44 = add i32 %43, 8
  %45 = call ptr @proto_tree_add_item(ptr noundef %40, i32 noundef %41, ptr noundef %42, i32 noundef %44, i32 noundef 4, i32 noundef 0)
  %46 = load ptr, ptr %8, align 8
  %47 = load i32, ptr @hf_pcep_lspa_obj_setup_priority, align 4
  %48 = load ptr, ptr %10, align 8
  %49 = load i32, ptr %11, align 4
  %50 = add i32 %49, 12
  %51 = call ptr @proto_tree_add_item(ptr noundef %46, i32 noundef %47, ptr noundef %48, i32 noundef %50, i32 noundef 1, i32 noundef 0)
  %52 = load ptr, ptr %8, align 8
  %53 = load i32, ptr @hf_pcep_lspa_obj_holding_priority, align 4
  %54 = load ptr, ptr %10, align 8
  %55 = load i32, ptr %11, align 4
  %56 = add i32 %55, 13
  %57 = call ptr @proto_tree_add_item(ptr noundef %52, i32 noundef %53, ptr noundef %54, i32 noundef %56, i32 noundef 1, i32 noundef 0)
  %58 = load ptr, ptr %8, align 8
  %59 = load i32, ptr @hf_pcep_lspa_obj_flags, align 4
  %60 = load ptr, ptr %10, align 8
  %61 = load i32, ptr %11, align 4
  %62 = add i32 %61, 14
  %63 = call ptr @proto_tree_add_item(ptr noundef %58, i32 noundef %59, ptr noundef %60, i32 noundef %62, i32 noundef 1, i32 noundef 0)
  store ptr %63, ptr %16, align 8
  %64 = load ptr, ptr %16, align 8
  %65 = load i32, ptr @ett_pcep_obj_metric, align 4
  %66 = call ptr @proto_item_add_subtree(ptr noundef %64, i32 noundef %65)
  store ptr %66, ptr %15, align 8
  %67 = load ptr, ptr %15, align 8
  %68 = load i32, ptr @hf_pcep_lspa_flags_l, align 4
  %69 = load ptr, ptr %10, align 8
  %70 = load i32, ptr %11, align 4
  %71 = add i32 %70, 14
  %72 = call ptr @proto_tree_add_item(ptr noundef %67, i32 noundef %68, ptr noundef %69, i32 noundef %71, i32 noundef 1, i32 noundef 0)
  %73 = load ptr, ptr %8, align 8
  %74 = load i32, ptr @hf_pcep_lspa_obj_reserved, align 4
  %75 = load ptr, ptr %10, align 8
  %76 = load i32, ptr %11, align 4
  %77 = add i32 %76, 15
  %78 = call ptr @proto_tree_add_item(ptr noundef %73, i32 noundef %74, ptr noundef %75, i32 noundef %77, i32 noundef 1, i32 noundef 0)
  %79 = load i32, ptr %11, align 4
  %80 = add i32 %79, 16
  store i32 %80, ptr %11, align 4
  %81 = load i32, ptr %12, align 4
  %82 = sub i32 %81, 20
  store i32 %82, ptr %12, align 4
  %83 = load ptr, ptr %8, align 8
  %84 = load ptr, ptr %10, align 8
  %85 = load i32, ptr %11, align 4
  %86 = load i32, ptr %12, align 4
  %87 = load i32, ptr @ett_pcep_obj_lspa, align 4
  call void @dissect_pcep_tlvs(ptr noundef %83, ptr noundef %84, i32 noundef %85, i32 noundef %86, i32 noundef %87)
  store i32 0, ptr %17, align 4
  br label %88

88:                                               ; preds = %28, %20
  call void @llvm.lifetime.end.p0(i64 8, ptr %16) #4
  call void @llvm.lifetime.end.p0(i64 8, ptr %15) #4
  %89 = load i32, ptr %17, align 4
  switch i32 %89, label %91 [
    i32 0, label %90
    i32 1, label %90
  ]

90:                                               ; preds = %88, %88
  ret void

91:                                               ; preds = %88
  unreachable
}