; Function Attrs: null_pointer_is_valid sspstrong uwtable
define internal void @dissect_pcep_lspa_obj(ptr noundef %0, ptr noundef %1, ptr noundef %2, i32 noundef %3, i32 noundef %4, i32 %5, i32 %6) #0 {
  %8 = icmp slt i32 %4, 20
  br i1 %8, label %9, label %11

9:                                                ; preds = %7
  %10 = tail call ptr (ptr, ptr, ptr, ptr, i32, i32, ptr, ...) @proto_tree_add_expert_format(ptr noundef %0, ptr noundef %1, ptr noundef nonnull @ei_pcep_subobject_bad_length, ptr noundef %2, i32 noundef %3, i32 noundef %4, ptr noundef nonnull @.str.1173, i32 noundef %4, i32 noundef 20)
  br label %39

11:                                               ; preds = %7
  %12 = load i32, ptr @hf_pcep_lspa_obj_exclude_any, align 4
  %13 = tail call ptr @proto_tree_add_item(ptr noundef %0, i32 noundef %12, ptr noundef %2, i32 noundef %3, i32 noundef 4, i32 noundef 0)
  %14 = load i32, ptr @hf_pcep_lspa_obj_include_any, align 4
  %15 = add i32 %3, 4
  %16 = tail call ptr @proto_tree_add_item(ptr noundef %0, i32 noundef %14, ptr noundef %2, i32 noundef %15, i32 noundef 4, i32 noundef 0)
  %17 = load i32, ptr @hf_pcep_lspa_obj_include_all, align 4
  %18 = add i32 %3, 8
  %19 = tail call ptr @proto_tree_add_item(ptr noundef %0, i32 noundef %17, ptr noundef %2, i32 noundef %18, i32 noundef 4, i32 noundef 0)
  %20 = load i32, ptr @hf_pcep_lspa_obj_setup_priority, align 4
  %21 = add i32 %3, 12
  %22 = tail call ptr @proto_tree_add_item(ptr noundef %0, i32 noundef %20, ptr noundef %2, i32 noundef %21, i32 noundef 1, i32 noundef 0)
  %23 = load i32, ptr @hf_pcep_lspa_obj_holding_priority, align 4
  %24 = add i32 %3, 13
  %25 = tail call ptr @proto_tree_add_item(ptr noundef %0, i32 noundef %23, ptr noundef %2, i32 noundef %24, i32 noundef 1, i32 noundef 0)
  %26 = load i32, ptr @hf_pcep_lspa_obj_flags, align 4
  %27 = add i32 %3, 14
  %28 = tail call ptr @proto_tree_add_item(ptr noundef %0, i32 noundef %26, ptr noundef %2, i32 noundef %27, i32 noundef 1, i32 noundef 0)
  %29 = load i32, ptr @ett_pcep_obj_metric, align 4
  %30 = tail call ptr @proto_item_add_subtree(ptr noundef %28, i32 noundef %29)
  %31 = load i32, ptr @hf_pcep_lspa_flags_l, align 4
  %32 = tail call ptr @proto_tree_add_item(ptr noundef %30, i32 noundef %31, ptr noundef %2, i32 noundef %27, i32 noundef 1, i32 noundef 0)
  %33 = load i32, ptr @hf_pcep_lspa_obj_reserved, align 4
  %34 = add i32 %3, 15
  %35 = tail call ptr @proto_tree_add_item(ptr noundef %0, i32 noundef %33, ptr noundef %2, i32 noundef %34, i32 noundef 1, i32 noundef 0)
  %36 = add i32 %3, 16
  %37 = add nsw i32 %4, -20
  %38 = load i32, ptr @ett_pcep_obj_lspa, align 4
  tail call fastcc void @dissect_pcep_tlvs_with_scope(ptr noundef %0, ptr noundef %2, i32 noundef %36, i32 noundef range(i32 0, 2147483640) %37, i32 noundef %38, i16 noundef zeroext 0)
  br label %39

39:                                               ; preds = %11, %9
  ret void
}